; Function Attrs: mustprogress uwtable
define hidden void @_ZN2qe6mbproj5solveER5modelR10ref_vectorI3app11ast_managerERS3_I4exprS5_E(ptr noundef nonnull readonly align 8 captures(none) dereferenceable(8) %0, ptr noundef nonnull align 8 dereferenceable(160) %1, ptr noundef nonnull align 8 dereferenceable(16) %2, ptr noundef nonnull align 8 dereferenceable(16) %3) local_unnamed_addr #4 align 2 personality ptr @__gxx_personality_v0 {
  %5 = load ptr, ptr %3, align 8, !tbaa !134
  %6 = getelementptr inbounds nuw i8, ptr %5, i64 712
  %7 = load i32, ptr %6, align 8, !tbaa !206
  store i32 0, ptr %6, align 8, !tbaa !206
  %8 = load ptr, ptr %0, align 8, !tbaa !207
  invoke void @_ZN2qe6mbproj4impl16preprocess_solveER5modelR10ref_vectorI3app11ast_managerERS4_I4exprS6_E(ptr noundef nonnull align 8 dereferenceable(43) %8, ptr noundef nonnull align 8 dereferenceable(160) %1, ptr noundef nonnull align 8 dereferenceable(16) %2, ptr noundef nonnull align 8 dereferenceable(16) %3)
          to label %9 unwind label %10

9:                                                ; preds = %4
  store i32 %7, ptr %6, align 8, !tbaa !206
  ret void

10:                                               ; preds = %4
  %11 = landingpad { ptr, i32 }
          cleanup
  store i32 %7, ptr %6, align 8, !tbaa !206
  resume { ptr, i32 } %11
}